; Function Attrs: mustprogress uwtable
define void @_ZNK10open_spiel5tarok10TarokState18CardActionToStringB5cxx11El(ptr dead_on_unwind noalias writable sret(%"class.std::__cxx11::basic_string") align 8 %0, ptr noundef nonnull readnone align 8 captures(none) dereferenceable(280) %1, i64 noundef %2) local_unnamed_addr #5 align 2 {
  %4 = icmp ult i64 %2, 54
  br i1 %4, label %_ZNK10open_spiel5tarok10TarokState12ActionToCardEl.exit, label %5

5:                                                ; preds = %3
  tail call void (ptr, ...) @_ZSt24__throw_out_of_range_fmtPKcz(ptr noundef nonnull @.str.48, i64 noundef %2, i64 noundef 54) #31
  unreachable

_ZNK10open_spiel5tarok10TarokState12ActionToCardEl.exit: ; preds = %3
  %6 = getelementptr inbounds nuw [54 x %"struct.open_spiel::tarok::Card"], ptr @_ZN10open_spiel5tarok9TarokGame10card_deck_E, i64 0, i64 %2
  tail call void @_ZNK10open_spiel5tarok4Card8ToStringB5cxx11Ev(ptr dead_on_unwind writable sret(%"class.std::__cxx11::basic_string") align 8 %0, ptr noundef nonnull align 8 dereferenceable(80) %6)
  ret void
}